; Function Attrs: mustprogress uwtable
define dso_local void @_ZN4absl24synchronization_internal13PthreadWaiter19InternalCondVarPokeEv(ptr noundef nonnull align 8 dereferenceable(96) %0) local_unnamed_addr #0 align 2 {
  %2 = getelementptr inbounds nuw i8, ptr %0, i64 88
  %3 = load i32, ptr %2, align 8, !tbaa !4
  %.not = icmp eq i32 %3, 0
  br i1 %.not, label %8, label %4

4:                                                ; preds = %1
  %5 = getelementptr inbounds nuw i8, ptr %0, i64 40
  %6 = tail call i32 @pthread_cond_signal(ptr noundef nonnull %5) #7
  %.not2 = icmp eq i32 %6, 0
  br i1 %.not2, label %8, label %7, !prof !12

7:                                                ; preds = %4
  tail call void (i32, ptr, i32, ptr, ...) @_ZN4absl16raw_log_internal6RawLogENS_11LogSeverityEPKciS3_z(i32 noundef 3, ptr noundef nonnull getelementptr inbounds nuw (i8, ptr @.str, i64 129), i32 noundef 158, ptr noundef nonnull @.str.5, i32 noundef %6)
  unreachable

8:                                                ; preds = %4, %1
  ret void
}